#include <math.h>
#include <stdio.h>
#include <stdlib.h>
#include <string.h>

int main()
{
 int a[1000],*p,i,j,n,m,k;
 scanf("%d%d",&n,&m);
 for( i = 0 ;i < n;i ++ )
 scanf("%d",&a[i]);
  p=&a[0];
  k = n - m % n;
 while(m--)
 {
    printf("%d ",*(p +n-m-1)  );
 }
 for( j = 0;j < k-1;j++ )
  {
    printf("%d ",*(p+j));
  }    
  printf("%d",*(p+k-1));

}
